; Function Attrs: mustprogress nounwind uwtable
define internal noundef range(i32 -1, 1) i32 @_ZL10load_agentP15AttachOperationP12outputStream(ptr noundef %0, ptr noundef %1) #0 {
  %3 = alloca %class.HandleMark, align 8
  %4 = alloca %class.JavaValue, align 8
  %5 = getelementptr inbounds i8, ptr %0, i64 25
  %6 = getelementptr inbounds i8, ptr %0, i64 1050
  %7 = getelementptr inbounds i8, ptr %0, i64 2075
  %8 = tail call i32 @strcmp(ptr noundef nonnull dereferenceable(1) %5, ptr noundef nonnull dereferenceable(11) @.str.27) #9
  %9 = icmp eq i32 %8, 0
  br i1 %9, label %10, label %36

10:                                               ; preds = %2
  %11 = tail call align 8 ptr @llvm.threadlocal.address.p0(ptr align 8 @_ZN6Thread12_thr_currentE)
  %12 = load ptr, ptr %11, align 8
  %13 = getelementptr inbounds i8, ptr %12, i64 800
  %14 = load ptr, ptr %13, align 8
  %15 = getelementptr inbounds i8, ptr %14, i64 24
  %16 = load ptr, ptr %15, align 8
  %17 = getelementptr inbounds i8, ptr %14, i64 32
  %18 = load ptr, ptr %17, align 8
  %19 = getelementptr inbounds i8, ptr %14, i64 40
  %20 = load ptr, ptr %19, align 8
  %21 = getelementptr inbounds i8, ptr %14, i64 8
  %22 = load i64, ptr %21, align 8
  call void @_ZN10HandleMark10initializeEP6Thread(ptr noundef nonnull align 8 dereferenceable(56) %3, ptr noundef %12) #8
  store i8 12, ptr %4, align 8
  %23 = call ptr @_ZN16java_lang_String15create_from_strEPKcP10JavaThread(ptr noundef nonnull @.str.28, ptr noundef %12) #8
  %24 = load ptr, ptr getelementptr inbounds (i8, ptr @_ZN9vmClasses8_klassesE, i64 640), align 8
  %25 = load ptr, ptr getelementptr inbounds (i8, ptr @_ZN6Symbol11_vm_symbolsE, i64 9016), align 8
  %26 = load ptr, ptr getelementptr inbounds (i8, ptr @_ZN6Symbol11_vm_symbolsE, i64 9024), align 8
  call void @_ZN9JavaCalls11call_staticEP9JavaValueP5KlassP6SymbolS5_6HandleP10JavaThread(ptr noundef nonnull %4, ptr noundef %24, ptr noundef %25, ptr noundef %26, ptr %23, ptr noundef %12) #8
  %27 = getelementptr inbounds i8, ptr %12, i64 8
  %28 = load ptr, ptr %27, align 8
  %.not = icmp eq ptr %28, null
  br i1 %.not, label %30, label %29

29:                                               ; preds = %10
  call void @_ZN19java_lang_Throwable5printEP7oopDescP12outputStream(ptr noundef nonnull %28, ptr noundef %1) #8
  call void @_ZN12ThreadShadow23clear_pending_exceptionEv(ptr noundef nonnull align 8 dereferenceable(28) %12) #8
  br label %30

30:                                               ; preds = %10, %29
  call void @_ZN10HandleMarkD1Ev(ptr noundef nonnull align 8 dereferenceable(56) %3) #8
  %31 = load ptr, ptr %16, align 8
  %.not.i.i.i.i = icmp eq ptr %31, null
  br i1 %.not.i.i.i.i, label %33, label %32

32:                                               ; preds = %30
  call void @_ZN5Arena17set_size_in_bytesEm(ptr noundef nonnull align 8 dereferenceable(48) %14, i64 noundef %22) #8
  call void @_ZN5Chunk9next_chopEPS_(ptr noundef nonnull %16) #8
  br label %33

33:                                               ; preds = %32, %30
  %34 = load ptr, ptr %17, align 8
  %.not8.i.i.i.i = icmp eq ptr %34, %18
  br i1 %.not8.i.i.i.i, label %_ZN12ResourceMarkD2Ev.exit, label %35

35:                                               ; preds = %33
  store ptr %16, ptr %15, align 8
  store ptr %18, ptr %17, align 8
  store ptr %20, ptr %19, align 8
  br label %_ZN12ResourceMarkD2Ev.exit

_ZN12ResourceMarkD2Ev.exit:                       ; preds = %33, %35
  br i1 %.not, label %36, label %39

36:                                               ; preds = %_ZN12ResourceMarkD2Ev.exit, %2
  %37 = call i32 @strcmp(ptr noundef nonnull dereferenceable(1) %6, ptr noundef nonnull dereferenceable(5) @.str.29) #9
  %38 = icmp eq i32 %37, 0
  call void @_ZN14JvmtiAgentList10load_agentEPKcbS1_P12outputStream(ptr noundef nonnull %5, i1 noundef zeroext %38, ptr noundef nonnull %7, ptr noundef %1) #8
  br label %39

39:                                               ; preds = %_ZN12ResourceMarkD2Ev.exit, %36
  %.1 = phi i32 [ -1, %_ZN12ResourceMarkD2Ev.exit ], [ 0, %36 ]
  ret i32 %.1
}